target datalayout = "e-m:e-p270:32:32-p271:32:32-p272:64:64-i64:64-i128:128-f80:128-n8:16:32:64-S128"
target triple = "x86_64-pc-linux-gnu"

%"class.icu_77::CollationWeights" = type { i32, [5 x i32], [5 x i32], [7 x %"struct.icu_77::CollationWeights::WeightRange"], i32, i32 }
%"struct.icu_77::CollationWeights::WeightRange" = type { i32, i32, i32, i32 }

; Function Attrs: mustprogress nounwind uwtable
define void @_ZN6icu_7716CollationWeights14initForPrimaryEa(ptr noundef nonnull align 4 dereferenceable(164) %0, i8 noundef signext %1) #0 align 2 {
  %3 = alloca ptr, align 8
  %4 = alloca i8, align 1
  store ptr %0, ptr %3, align 8, !tbaa !3
  store i8 %1, ptr %4, align 1, !tbaa !16
  %5 = load ptr, ptr %3, align 8
  %6 = getelementptr inbounds nuw %"class.icu_77::CollationWeights", ptr %5, i32 0, i32 0
  store i32 1, ptr %6, align 4, !tbaa !8
  %7 = getelementptr inbounds nuw %"class.icu_77::CollationWeights", ptr %5, i32 0, i32 1
  %8 = getelementptr inbounds [5 x i32], ptr %7, i64 0, i64 1
  store i32 3, ptr %8, align 4, !tbaa !13
  %9 = getelementptr inbounds nuw %"class.icu_77::CollationWeights", ptr %5, i32 0, i32 2
  %10 = getelementptr inbounds [5 x i32], ptr %9, i64 0, i64 1
  store i32 255, ptr %10, align 4, !tbaa !13
  %11 = load i8, ptr %4, align 1, !tbaa !16
  %12 = icmp ne i8 %11, 0
  br i1 %12, label %13, label %18

13:                                               ; preds = %2
  %14 = getelementptr inbounds nuw %"class.icu_77::CollationWeights", ptr %5, i32 0, i32 1
  %15 = getelementptr inbounds [5 x i32], ptr %14, i64 0, i64 2
  store i32 4, ptr %15, align 4, !tbaa !13
  %16 = getelementptr inbounds nuw %"class.icu_77::CollationWeights", ptr %5, i32 0, i32 2
  %17 = getelementptr inbounds [5 x i32], ptr %16, i64 0, i64 2
  store i32 254, ptr %17, align 4, !tbaa !13
  br label %23

18:                                               ; preds = %2
  %19 = getelementptr inbounds nuw %"class.icu_77::CollationWeights", ptr %5, i32 0, i32 1
  %20 = getelementptr inbounds [5 x i32], ptr %19, i64 0, i64 2
  store i32 2, ptr %20, align 4, !tbaa !13
  %21 = getelementptr inbounds nuw %"class.icu_77::CollationWeights", ptr %5, i32 0, i32 2
  %22 = getelementptr inbounds [5 x i32], ptr %21, i64 0, i64 2
  store i32 255, ptr %22, align 4, !tbaa !13
  br label %23

23:                                               ; preds = %18, %13
  %24 = getelementptr inbounds nuw %"class.icu_77::CollationWeights", ptr %5, i32 0, i32 1
  %25 = getelementptr inbounds [5 x i32], ptr %24, i64 0, i64 3
  store i32 2, ptr %25, align 4, !tbaa !13
  %26 = getelementptr inbounds nuw %"class.icu_77::CollationWeights", ptr %5, i32 0, i32 2
  %27 = getelementptr inbounds [5 x i32], ptr %26, i64 0, i64 3
  store i32 255, ptr %27, align 4, !tbaa !13
  %28 = getelementptr inbounds nuw %"class.icu_77::CollationWeights", ptr %5, i32 0, i32 1
  %29 = getelementptr inbounds [5 x i32], ptr %28, i64 0, i64 4
  store i32 2, ptr %29, align 4, !tbaa !13
  %30 = getelementptr inbounds nuw %"class.icu_77::CollationWeights", ptr %5, i32 0, i32 2
  %31 = getelementptr inbounds [5 x i32], ptr %30, i64 0, i64 4
  store i32 255, ptr %31, align 4, !tbaa !13
  ret void
}